; Function Attrs: nounwind uwtable
define internal ptr @gc_is_tracked(ptr readnone captures(none) %0, ptr noundef %1) #0 {
  %3 = tail call i32 @PyObject_GC_IsTracked(ptr noundef %1) #5
  %4 = icmp eq i32 %3, -1
  br i1 %4, label %5, label %7

5:                                                ; preds = %2
  %6 = tail call ptr @PyErr_Occurred() #5
  %.not = icmp eq ptr %6, null
  br i1 %.not, label %7, label %10

7:                                                ; preds = %5, %2
  %8 = sext i32 %3 to i64
  %9 = tail call ptr @PyBool_FromLong(i64 noundef %8) #5
  br label %10

10:                                               ; preds = %5, %7
  %.0 = phi ptr [ null, %5 ], [ %9, %7 ]
  ret ptr %.0
}